; Function Attrs: nounwind uwtable
define dso_local ptr @PyObject_CallFunctionObjArgs(ptr noundef %0, ...) local_unnamed_addr #0 {
  %2 = alloca [1 x %struct.__va_list_tag], align 16
  %3 = tail call align 8 ptr @llvm.threadlocal.address.p0(ptr align 8 @_Py_tss_tstate)
  %4 = load ptr, ptr %3, align 8, !tbaa !25
  call void @llvm.lifetime.start.p0(i64 24, ptr nonnull %2) #10
  call void @llvm.va_start.p0(ptr nonnull %2)
  %5 = call fastcc ptr @object_vacall(ptr noundef %4, ptr noundef null, ptr noundef %0, ptr noundef %2)
  call void @llvm.va_end.p0(ptr nonnull %2)
  call void @llvm.lifetime.end.p0(i64 24, ptr nonnull %2) #10
  ret ptr %5
}